; Function Attrs: mustprogress uwtable
define void @_ZN6icu_7518AnnualTimeZoneRuleC2ERKS0_(ptr noundef nonnull align 8 dereferenceable(96) %this, ptr noundef nonnull align 8 dereferenceable(96) %source) unnamed_addr #0 align 2 personality ptr @__gxx_personality_v0 {
entry:
  store ptr getelementptr inbounds ({ [13 x ptr] }, ptr @_ZTVN6icu_7512TimeZoneRuleE, i64 0, i32 0, i64 2), ptr %this, align 8
  %fName.i = getelementptr inbounds i8, ptr %this, i64 8
  %fName2.i = getelementptr inbounds i8, ptr %source, i64 8
  invoke void @_ZN6icu_7513UnicodeStringC1ERKS0_(ptr noundef nonnull align 8 dereferenceable(64) %fName.i, ptr noundef nonnull align 8 dereferenceable(64) %fName2.i)
          to label %_ZN6icu_7512TimeZoneRuleC2ERKS0_.exit unwind label %lpad.i

common.resume:                                    ; preds = %lpad, %lpad.i
  %common.resume.op = phi { ptr, i32 } [ %0, %lpad.i ], [ %6, %lpad ]
  tail call void @_ZN6icu_757UObjectD2Ev(ptr noundef nonnull align 8 dereferenceable(8) %this) #16
  resume { ptr, i32 } %common.resume.op

lpad.i:                                           ; preds = %entry
  %0 = landingpad { ptr, i32 }
          cleanup
  br label %common.resume

_ZN6icu_7512TimeZoneRuleC2ERKS0_.exit:            ; preds = %entry
  %fRawOffset.i = getelementptr inbounds i8, ptr %this, i64 72
  %fRawOffset3.i = getelementptr inbounds i8, ptr %source, i64 72
  %1 = load i32, ptr %fRawOffset3.i, align 8
  store i32 %1, ptr %fRawOffset.i, align 8
  %fDSTSavings.i = getelementptr inbounds i8, ptr %this, i64 76
  %fDSTSavings4.i = getelementptr inbounds i8, ptr %source, i64 76
  %2 = load i32, ptr %fDSTSavings4.i, align 4
  store i32 %2, ptr %fDSTSavings.i, align 4
  store ptr getelementptr inbounds ({ [13 x ptr] }, ptr @_ZTVN6icu_7518AnnualTimeZoneRuleE, i64 0, i32 0, i64 2), ptr %this, align 8
  %call = tail call noundef ptr @_ZN6icu_757UMemorynwEm(i64 noundef 40) #16
  %new.isnull = icmp eq ptr %call, null
  br i1 %new.isnull, label %new.cont, label %new.notnull

new.notnull:                                      ; preds = %_ZN6icu_7512TimeZoneRuleC2ERKS0_.exit
  %fDateTimeRule2 = getelementptr inbounds i8, ptr %source, i64 80
  %3 = load ptr, ptr %fDateTimeRule2, align 8
  invoke void @_ZN6icu_7512DateTimeRuleC1ERKS0_(ptr noundef nonnull align 8 dereferenceable(36) %call, ptr noundef nonnull align 8 dereferenceable(36) %3)
          to label %new.cont unwind label %lpad

new.cont:                                         ; preds = %new.notnull, %_ZN6icu_7512TimeZoneRuleC2ERKS0_.exit
  %fDateTimeRule = getelementptr inbounds i8, ptr %this, i64 80
  store ptr %call, ptr %fDateTimeRule, align 8
  %fStartYear = getelementptr inbounds i8, ptr %this, i64 88
  %fStartYear3 = getelementptr inbounds i8, ptr %source, i64 88
  %4 = load i32, ptr %fStartYear3, align 8
  store i32 %4, ptr %fStartYear, align 8
  %fEndYear = getelementptr inbounds i8, ptr %this, i64 92
  %fEndYear4 = getelementptr inbounds i8, ptr %source, i64 92
  %5 = load i32, ptr %fEndYear4, align 4
  store i32 %5, ptr %fEndYear, align 4
  ret void

lpad:                                             ; preds = %new.notnull
  %6 = landingpad { ptr, i32 }
          cleanup
  tail call void @_ZN6icu_757UMemorydlEPv(ptr noundef nonnull %call) #16
  store ptr getelementptr inbounds ({ [13 x ptr] }, ptr @_ZTVN6icu_7512TimeZoneRuleE, i64 0, i32 0, i64 2), ptr %this, align 8
  tail call void @_ZN6icu_7513UnicodeStringD1Ev(ptr noundef nonnull align 8 dereferenceable(64) %fName.i) #16
  br label %common.resume
}